target datalayout = "e-m:e-p270:32:32-p271:32:32-p272:64:64-i64:64-i128:128-f80:128-n8:16:32:64-S128"
target triple = "x86_64-pc-linux-gnu"

%struct._zend_array = type { %struct._zend_refcounted_h, %union.anon.0, i32, %union.anon.2, i32, i32, i32, i32, i64, ptr }
%struct._zend_refcounted_h = type { i32, %union.anon }
%union.anon = type { i32 }
%union.anon.0 = type { i32 }
%union.anon.2 = type { ptr }
%struct._func_info_t = type { ptr, i32, i32, ptr }
%struct.anon = type { i8, [3 x i8], i32, ptr, ptr, ptr, i32, i32, ptr, ptr, ptr, ptr, i32, ptr }
%struct._zval_struct = type { %union._zend_value, %union.anon.4, %union.anon.7 }
%union._zend_value = type { i64 }
%union.anon.4 = type { i32 }
%union.anon.7 = type { i32 }
%struct._zend_call_info = type { ptr, ptr, ptr, ptr, ptr, ptr, i8, i8, i8, i8, i8, i32, [1 x %struct._zend_send_arg_info] }
%struct._zend_send_arg_info = type { ptr }
%struct._zend_op_array = type { i8, [3 x i8], i32, ptr, ptr, ptr, i32, i32, ptr, ptr, ptr, ptr, i32, ptr, i32, i32, i32, ptr, ptr, ptr, ptr, ptr, i32, i32, ptr, ptr, ptr, i32, i32, i32, i32, ptr, ptr, [6 x ptr] }
%struct._zend_func_info = type { i32, i32, %struct._zend_ssa, ptr, ptr, ptr, %struct._zend_ssa_var_info }
%struct._zend_ssa = type { %struct._zend_cfg, i32, i32, ptr, ptr, ptr, ptr }
%struct._zend_cfg = type { i32, i32, ptr, ptr, ptr, i32 }
%struct._zend_ssa_var_info = type { i32, i8, %struct._zend_ssa_range, ptr }
%struct._zend_ssa_range = type { i64, i64, i8, i8 }

@zend_func_info_rid = dso_local global i32 -1, align 4
@func_info = internal global %struct._zend_array zeroinitializer, align 8

; Function Attrs: nounwind uwtable
define hidden i32 @zend_get_internal_func_info(ptr noundef %0, ptr noundef %1, ptr noundef %2) #0 {
  %4 = alloca i32, align 4
  %5 = alloca ptr, align 8
  %6 = alloca ptr, align 8
  %7 = alloca ptr, align 8
  %8 = alloca ptr, align 8
  %9 = alloca i32, align 4
  %10 = alloca ptr, align 8
  %11 = alloca ptr, align 8
  %12 = alloca i32, align 4
  store ptr %0, ptr %5, align 8, !tbaa !4
  store ptr %1, ptr %6, align 8, !tbaa !9
  store ptr %2, ptr %7, align 8, !tbaa !11
  %13 = load ptr, ptr %5, align 8, !tbaa !4
  %14 = getelementptr inbounds nuw %struct.anon, ptr %13, i32 0, i32 4
  %15 = load ptr, ptr %14, align 8, !tbaa !13
  %16 = icmp ne ptr %15, null
  br i1 %16, label %17, label %18

17:                                               ; preds = %3
  store i32 0, ptr %4, align 4
  br label %67

18:                                               ; preds = %3
  call void @llvm.lifetime.start.p0(i64 8, ptr %8) #6
  %19 = load ptr, ptr %5, align 8, !tbaa !4
  %20 = getelementptr inbounds nuw %struct.anon, ptr %19, i32 0, i32 3
  %21 = load ptr, ptr %20, align 8, !tbaa !13
  store ptr %21, ptr %8, align 8, !tbaa !14
  %22 = load ptr, ptr %8, align 8, !tbaa !14
  %23 = icmp ne ptr %22, null
  br i1 %23, label %25, label %24

24:                                               ; preds = %18
  store i32 0, ptr %4, align 4
  store i32 1, ptr %9, align 4
  br label %66

25:                                               ; preds = %18
  call void @llvm.lifetime.start.p0(i64 8, ptr %10) #6
  %26 = load ptr, ptr %8, align 8, !tbaa !14
  %27 = call ptr @zend_hash_find_known_hash(ptr noundef @func_info, ptr noundef %26)
  store ptr %27, ptr %10, align 8, !tbaa !16
  %28 = load ptr, ptr %10, align 8, !tbaa !16
  %29 = icmp ne ptr %28, null
  br i1 %29, label %31, label %30

30:                                               ; preds = %25
  store i32 0, ptr %4, align 4
  store i32 1, ptr %9, align 4
  br label %65

31:                                               ; preds = %25
  call void @llvm.lifetime.start.p0(i64 8, ptr %11) #6
  %32 = load ptr, ptr %10, align 8, !tbaa !16
  %33 = getelementptr inbounds nuw %struct._zval_struct, ptr %32, i32 0, i32 0
  %34 = load ptr, ptr %33, align 8, !tbaa !13
  store ptr %34, ptr %11, align 8, !tbaa !18
  %35 = load ptr, ptr %11, align 8, !tbaa !18
  %36 = getelementptr inbounds nuw %struct._func_info_t, ptr %35, i32 0, i32 3
  %37 = load ptr, ptr %36, align 8, !tbaa !20
  %38 = icmp ne ptr %37, null
  br i1 %38, label %39, label %52

39:                                               ; preds = %31
  %40 = load ptr, ptr %6, align 8, !tbaa !9
  %41 = icmp ne ptr %40, null
  br i1 %41, label %42, label %49

42:                                               ; preds = %39
  %43 = load ptr, ptr %11, align 8, !tbaa !18
  %44 = getelementptr inbounds nuw %struct._func_info_t, ptr %43, i32 0, i32 3
  %45 = load ptr, ptr %44, align 8, !tbaa !20
  %46 = load ptr, ptr %6, align 8, !tbaa !9
  %47 = load ptr, ptr %7, align 8, !tbaa !11
  %48 = call i32 %45(ptr noundef %46, ptr noundef %47)
  br label %50

49:                                               ; preds = %39
  br label %50

50:                                               ; preds = %49, %42
  %51 = phi i32 [ %48, %42 ], [ 0, %49 ]
  store i32 %51, ptr %4, align 4
  store i32 1, ptr %9, align 4
  br label %64

52:                                               ; preds = %31
  call void @llvm.lifetime.start.p0(i64 4, ptr %12) #6
  %53 = load ptr, ptr %11, align 8, !tbaa !18
  %54 = getelementptr inbounds nuw %struct._func_info_t, ptr %53, i32 0, i32 2
  %55 = load i32, ptr %54, align 4, !tbaa !24
  store i32 %55, ptr %12, align 4, !tbaa !25
  %56 = load i32, ptr %12, align 4, !tbaa !25
  %57 = and i32 %56, 128
  %58 = icmp ne i32 %57, 0
  br i1 %58, label %59, label %62

59:                                               ; preds = %52
  %60 = load i32, ptr %12, align 4, !tbaa !25
  %61 = or i32 %60, 536870912
  store i32 %61, ptr %12, align 4, !tbaa !25
  br label %62

62:                                               ; preds = %59, %52
  %63 = load i32, ptr %12, align 4, !tbaa !25
  store i32 %63, ptr %4, align 4
  store i32 1, ptr %9, align 4
  call void @llvm.lifetime.end.p0(i64 4, ptr %12) #6
  br label %64

64:                                               ; preds = %62, %50
  call void @llvm.lifetime.end.p0(i64 8, ptr %11) #6
  br label %65

65:                                               ; preds = %64, %30
  call void @llvm.lifetime.end.p0(i64 8, ptr %10) #6
  br label %66

66:                                               ; preds = %65, %24
  call void @llvm.lifetime.end.p0(i64 8, ptr %8) #6
  br label %67

67:                                               ; preds = %66, %17
  %68 = load i32, ptr %4, align 4
  ret i32 %68
}

; Function Attrs: nounwind uwtable
define dso_local i32 @zend_get_func_info(ptr noundef %0, ptr noundef %1, ptr noundef %2, ptr noundef %3) #0 {
  %5 = alloca i32, align 4
  %6 = alloca ptr, align 8
  %7 = alloca ptr, align 8
  %8 = alloca ptr, align 8
  %9 = alloca ptr, align 8
  %10 = alloca i32, align 4
  %11 = alloca ptr, align 8
  %12 = alloca i32, align 4
  %13 = alloca i32, align 4
  %14 = alloca ptr, align 8
  store ptr %0, ptr %6, align 8, !tbaa !9
  store ptr %1, ptr %7, align 8, !tbaa !11
  store ptr %2, ptr %8, align 8, !tbaa !26
  store ptr %3, ptr %9, align 8, !tbaa !28
  call void @llvm.lifetime.start.p0(i64 4, ptr %10) #6
  store i32 0, ptr %10, align 4, !tbaa !25
  call void @llvm.lifetime.start.p0(i64 8, ptr %11) #6
  %15 = load ptr, ptr %6, align 8, !tbaa !9
  %16 = getelementptr inbounds nuw %struct._zend_call_info, ptr %15, i32 0, i32 3
  %17 = load ptr, ptr %16, align 8, !tbaa !30
  store ptr %17, ptr %11, align 8, !tbaa !4
  %18 = load ptr, ptr %8, align 8, !tbaa !26
  store ptr null, ptr %18, align 8, !tbaa !35
  %19 = load ptr, ptr %9, align 8, !tbaa !28
  store i8 0, ptr %19, align 1, !tbaa !37
  %20 = load ptr, ptr %11, align 8, !tbaa !4
  %21 = load i8, ptr %20, align 8, !tbaa !13
  %22 = zext i8 %21 to i32
  %23 = icmp eq i32 %22, 1
  br i1 %23, label %24, label %46

24:                                               ; preds = %4
  call void @llvm.lifetime.start.p0(i64 4, ptr %12) #6
  %25 = load ptr, ptr %11, align 8, !tbaa !4
  %26 = load ptr, ptr %6, align 8, !tbaa !9
  %27 = load ptr, ptr %7, align 8, !tbaa !11
  %28 = call i32 @zend_get_internal_func_info(ptr noundef %25, ptr noundef %26, ptr noundef %27)
  store i32 %28, ptr %12, align 4, !tbaa !25
  %29 = load i32, ptr %12, align 4, !tbaa !25
  %30 = icmp ne i32 %29, 0
  br i1 %30, label %31, label %33

31:                                               ; preds = %24
  %32 = load i32, ptr %12, align 4, !tbaa !25
  store i32 %32, ptr %5, align 4
  store i32 1, ptr %13, align 4
  br label %43

33:                                               ; preds = %24
  %34 = load ptr, ptr %11, align 8, !tbaa !4
  %35 = load ptr, ptr %8, align 8, !tbaa !26
  %36 = load ptr, ptr %9, align 8, !tbaa !28
  %37 = load ptr, ptr %6, align 8, !tbaa !9
  %38 = getelementptr inbounds nuw %struct._zend_call_info, ptr %37, i32 0, i32 9
  %39 = load i8, ptr %38, align 1, !tbaa !38, !range !39, !noundef !40
  %40 = trunc i8 %39 to i1
  %41 = xor i1 %40, true
  %42 = call i32 @zend_get_return_info_from_signature_only(ptr noundef %34, ptr noundef null, ptr noundef %35, ptr noundef %36, i1 noundef zeroext %41)
  store i32 %42, ptr %10, align 4, !tbaa !25
  store i32 0, ptr %13, align 4
  br label %43

43:                                               ; preds = %33, %31
  call void @llvm.lifetime.end.p0(i64 4, ptr %12) #6
  %44 = load i32, ptr %13, align 4
  switch i32 %44, label %109 [
    i32 0, label %45
  ]

45:                                               ; preds = %43
  br label %107

46:                                               ; preds = %4
  %47 = load ptr, ptr %6, align 8, !tbaa !9
  %48 = getelementptr inbounds nuw %struct._zend_call_info, ptr %47, i32 0, i32 9
  %49 = load i8, ptr %48, align 1, !tbaa !38, !range !39, !noundef !40
  %50 = trunc i8 %49 to i1
  br i1 %50, label %80, label %51

51:                                               ; preds = %46
  call void @llvm.lifetime.start.p0(i64 8, ptr %14) #6
  %52 = load ptr, ptr %11, align 8, !tbaa !4
  %53 = getelementptr inbounds nuw %struct._zend_op_array, ptr %52, i32 0, i32 33
  %54 = load i32, ptr @zend_func_info_rid, align 4, !tbaa !25
  %55 = sext i32 %54 to i64
  %56 = getelementptr inbounds [6 x ptr], ptr %53, i64 0, i64 %55
  %57 = load ptr, ptr %56, align 8, !tbaa !41
  store ptr %57, ptr %14, align 8, !tbaa !42
  %58 = load ptr, ptr %14, align 8, !tbaa !42
  %59 = icmp ne ptr %58, null
  br i1 %59, label %60, label %79

60:                                               ; preds = %51
  %61 = load ptr, ptr %14, align 8, !tbaa !42
  %62 = getelementptr inbounds nuw %struct._zend_func_info, ptr %61, i32 0, i32 6
  %63 = getelementptr inbounds nuw %struct._zend_ssa_var_info, ptr %62, i32 0, i32 0
  %64 = load i32, ptr %63, align 8, !tbaa !44
  store i32 %64, ptr %10, align 4, !tbaa !25
  %65 = load ptr, ptr %14, align 8, !tbaa !42
  %66 = getelementptr inbounds nuw %struct._zend_func_info, ptr %65, i32 0, i32 6
  %67 = getelementptr inbounds nuw %struct._zend_ssa_var_info, ptr %66, i32 0, i32 3
  %68 = load ptr, ptr %67, align 8, !tbaa !58
  %69 = load ptr, ptr %8, align 8, !tbaa !26
  store ptr %68, ptr %69, align 8, !tbaa !35
  %70 = load ptr, ptr %14, align 8, !tbaa !42
  %71 = getelementptr inbounds nuw %struct._zend_func_info, ptr %70, i32 0, i32 6
  %72 = getelementptr inbounds nuw %struct._zend_ssa_var_info, ptr %71, i32 0, i32 1
  %73 = load i8, ptr %72, align 4
  %74 = lshr i8 %73, 1
  %75 = and i8 %74, 1
  %76 = trunc i8 %75 to i1
  %77 = load ptr, ptr %9, align 8, !tbaa !28
  %78 = zext i1 %76 to i8
  store i8 %78, ptr %77, align 1, !tbaa !37
  br label %79

79:                                               ; preds = %60, %51
  call void @llvm.lifetime.end.p0(i64 8, ptr %14) #6
  br label %80

80:                                               ; preds = %79, %46
  %81 = load i32, ptr %10, align 4, !tbaa !25
  %82 = icmp ne i32 %81, 0
  br i1 %82, label %106, label %83

83:                                               ; preds = %80
  %84 = load ptr, ptr %11, align 8, !tbaa !4
  %85 = load ptr, ptr %8, align 8, !tbaa !26
  %86 = load ptr, ptr %9, align 8, !tbaa !28
  %87 = load ptr, ptr %6, align 8, !tbaa !9
  %88 = getelementptr inbounds nuw %struct._zend_call_info, ptr %87, i32 0, i32 9
  %89 = load i8, ptr %88, align 1, !tbaa !38, !range !39, !noundef !40
  %90 = trunc i8 %89 to i1
  %91 = xor i1 %90, true
  %92 = call i32 @zend_get_return_info_from_signature_only(ptr noundef %84, ptr noundef null, ptr noundef %85, ptr noundef %86, i1 noundef zeroext %91)
  store i32 %92, ptr %10, align 4, !tbaa !25
  %93 = load ptr, ptr %6, align 8, !tbaa !9
  %94 = getelementptr inbounds nuw %struct._zend_call_info, ptr %93, i32 0, i32 9
  %95 = load i8, ptr %94, align 1, !tbaa !38, !range !39, !noundef !40
  %96 = trunc i8 %95 to i1
  br i1 %96, label %97, label %105

97:                                               ; preds = %83
  %98 = load i32, ptr %10, align 4, !tbaa !25
  %99 = and i32 %98, -1025
  %100 = icmp ne i32 %99, 0
  br i1 %100, label %101, label %105

101:                                              ; preds = %97
  %102 = load i32, ptr %10, align 4, !tbaa !25
  %103 = or i32 %102, 1024
  store i32 %103, ptr %10, align 4, !tbaa !25
  %104 = load ptr, ptr %8, align 8, !tbaa !26
  store ptr null, ptr %104, align 8, !tbaa !35
  br label %105

105:                                              ; preds = %101, %97, %83
  br label %106

106:                                              ; preds = %105, %80
  br label %107

107:                                              ; preds = %106, %45
  %108 = load i32, ptr %10, align 4, !tbaa !25
  store i32 %108, ptr %5, align 4
  store i32 1, ptr %13, align 4
  br label %109

109:                                              ; preds = %107, %43
  call void @llvm.lifetime.end.p0(i64 8, ptr %11) #6
  call void @llvm.lifetime.end.p0(i64 4, ptr %10) #6
  %110 = load i32, ptr %5, align 4
  ret i32 %110
}