; Function Attrs: nounwind uwtable
define dso_local i32 @zend_get_func_info(ptr noundef %0, ptr noundef %1, ptr noundef initializes((0, 8)) %2, ptr noundef initializes((0, 1)) %3) local_unnamed_addr #0 {
  %5 = getelementptr inbounds nuw i8, ptr %0, i64 24
  %6 = load ptr, ptr %5, align 8, !tbaa !13
  store ptr null, ptr %2, align 8, !tbaa !20
  store i8 0, ptr %3, align 1, !tbaa !22
  %7 = load i8, ptr %6, align 8, !tbaa !4
  %8 = icmp eq i8 %7, 1
  br i1 %8, label %9, label %33

9:                                                ; preds = %4
  %10 = getelementptr inbounds nuw i8, ptr %6, i64 16
  %11 = load ptr, ptr %10, align 8, !tbaa !4
  %.not.i = icmp eq ptr %11, null
  br i1 %.not.i, label %12, label %zend_get_internal_func_info.exit.thread

12:                                               ; preds = %9
  %13 = getelementptr inbounds nuw i8, ptr %6, i64 8
  %14 = load ptr, ptr %13, align 8, !tbaa !4
  %.not20.i = icmp eq ptr %14, null
  br i1 %.not20.i, label %zend_get_internal_func_info.exit.thread, label %15

15:                                               ; preds = %12
  %16 = tail call ptr @zend_hash_find_known_hash(ptr noundef nonnull @func_info, ptr noundef nonnull %14) #6
  %.not21.i = icmp eq ptr %16, null
  br i1 %.not21.i, label %zend_get_internal_func_info.exit.thread, label %17

17:                                               ; preds = %15
  %18 = load ptr, ptr %16, align 8, !tbaa !4
  %19 = getelementptr inbounds nuw i8, ptr %18, i64 16
  %20 = load ptr, ptr %19, align 8, !tbaa !7
  %.not22.i = icmp eq ptr %20, null
  br i1 %.not22.i, label %23, label %21

21:                                               ; preds = %17
  %22 = tail call i32 %20(ptr noundef nonnull %0, ptr noundef %1) #6
  br label %zend_get_internal_func_info.exit

23:                                               ; preds = %17
  %24 = getelementptr inbounds nuw i8, ptr %18, i64 12
  %25 = load i32, ptr %24, align 4, !tbaa !12
  %26 = shl i32 %25, 22
  %27 = and i32 %26, 536870912
  %spec.select.i = or i32 %27, %25
  br label %zend_get_internal_func_info.exit

zend_get_internal_func_info.exit:                 ; preds = %21, %23
  %.015.i = phi i32 [ %spec.select.i, %23 ], [ %22, %21 ]
  %.not37 = icmp eq i32 %.015.i, 0
  br i1 %.not37, label %zend_get_internal_func_info.exit.thread, label %58

zend_get_internal_func_info.exit.thread:          ; preds = %15, %12, %9, %zend_get_internal_func_info.exit
  %28 = getelementptr inbounds nuw i8, ptr %0, i64 51
  %29 = load i8, ptr %28, align 1, !tbaa !23, !range !24, !noundef !25
  %30 = trunc nuw i8 %29 to i1
  %31 = xor i1 %30, true
  %32 = tail call i32 @zend_get_return_info_from_signature_only(ptr noundef nonnull %6, ptr noundef null, ptr noundef nonnull %2, ptr noundef nonnull %3, i1 noundef zeroext %31) #6
  br label %58

33:                                               ; preds = %4
  %34 = getelementptr inbounds nuw i8, ptr %0, i64 51
  %35 = load i8, ptr %34, align 1, !tbaa !23, !range !24, !noundef !25
  %36 = trunc nuw i8 %35 to i1
  br i1 %36, label %.thread, label %37

37:                                               ; preds = %33
  %38 = getelementptr inbounds nuw i8, ptr %6, i64 208
  %39 = load i32, ptr @zend_func_info_rid, align 4, !tbaa !26
  %40 = sext i32 %39 to i64
  %41 = getelementptr inbounds [6 x ptr], ptr %38, i64 0, i64 %40
  %42 = load ptr, ptr %41, align 8, !tbaa !27
  %.not = icmp eq ptr %42, null
  br i1 %.not, label %.thread, label %43

43:                                               ; preds = %37
  %44 = getelementptr inbounds nuw i8, ptr %42, i64 112
  %45 = load i32, ptr %44, align 8, !tbaa !28
  %46 = getelementptr inbounds nuw i8, ptr %42, i64 144
  %47 = load ptr, ptr %46, align 8, !tbaa !42
  store ptr %47, ptr %2, align 8, !tbaa !20
  %48 = getelementptr inbounds nuw i8, ptr %42, i64 116
  %49 = load i8, ptr %48, align 4
  %50 = lshr i8 %49, 1
  %.lobit = and i8 %50, 1
  store i8 %.lobit, ptr %3, align 1, !tbaa !22
  %.not35 = icmp eq i32 %45, 0
  br i1 %.not35, label %..thread_crit_edge, label %58

..thread_crit_edge:                               ; preds = %43
  %.pre = load i8, ptr %34, align 1, !tbaa !23, !range !24
  %.pre47 = trunc nuw i8 %.pre to i1
  %51 = xor i1 %.pre47, true
  br label %.thread

.thread:                                          ; preds = %..thread_crit_edge, %37, %33
  %.pre-phi = phi i1 [ %51, %..thread_crit_edge ], [ true, %37 ], [ false, %33 ]
  %52 = tail call i32 @zend_get_return_info_from_signature_only(ptr noundef nonnull %6, ptr noundef null, ptr noundef nonnull %2, ptr noundef nonnull %3, i1 noundef zeroext %.pre-phi) #6
  %53 = load i8, ptr %34, align 1, !tbaa !23, !range !24, !noundef !25
  %54 = trunc nuw i8 %53 to i1
  %55 = and i32 %52, -1025
  %.not36 = icmp ne i32 %55, 0
  %or.cond.not = select i1 %54, i1 %.not36, i1 false
  br i1 %or.cond.not, label %56, label %58

56:                                               ; preds = %.thread
  %57 = or i32 %52, 1024
  store ptr null, ptr %2, align 8, !tbaa !20
  br label %58

58:                                               ; preds = %zend_get_internal_func_info.exit.thread, %zend_get_internal_func_info.exit, %.thread, %56, %43
  %.1 = phi i32 [ %45, %43 ], [ %57, %56 ], [ %52, %.thread ], [ %32, %zend_get_internal_func_info.exit.thread ], [ %.015.i, %zend_get_internal_func_info.exit ]
  ret i32 %.1
}